target datalayout = "e-m:e-p270:32:32-p271:32:32-p272:64:64-i64:64-i128:128-f80:128-n8:16:32:64-S128"
target triple = "x86_64-pc-linux-gnu"

%"struct.faiss::Index" = type <{ ptr, i32, [4 x i8], i64, i8, i8, [2 x i8], i32, float, [4 x i8] }>

; Function Attrs: mustprogress uwtable
define void @_ZNK5faiss5Index16compute_residualEPKfPfl(ptr noundef nonnull align 8 dereferenceable(36) %0, ptr noundef %1, ptr noundef %2, i64 noundef %3) unnamed_addr #1 align 2 {
  %5 = alloca ptr, align 8
  %6 = alloca ptr, align 8
  %7 = alloca ptr, align 8
  %8 = alloca i64, align 8
  %9 = alloca i64, align 8
  store ptr %0, ptr %5, align 8, !tbaa !4
  store ptr %1, ptr %6, align 8, !tbaa !11
  store ptr %2, ptr %7, align 8, !tbaa !11
  store i64 %3, ptr %8, align 8, !tbaa !9
  %10 = load ptr, ptr %5, align 8
  %11 = load i64, ptr %8, align 8, !tbaa !9
  %12 = load ptr, ptr %7, align 8, !tbaa !11
  %13 = load ptr, ptr %10, align 8, !tbaa !21
  %14 = getelementptr inbounds ptr, ptr %13, i64 10
  %15 = load ptr, ptr %14, align 8
  call void %15(ptr noundef nonnull align 8 dereferenceable(36) %10, i64 noundef %11, ptr noundef %12)
  call void @llvm.lifetime.start.p0(i64 8, ptr %9) #16
  store i64 0, ptr %9, align 8, !tbaa !9
  br label %16

16:                                               ; preds = %36, %4
  %17 = load i64, ptr %9, align 8, !tbaa !9
  %18 = getelementptr inbounds nuw %"struct.faiss::Index", ptr %10, i32 0, i32 1
  %19 = load i32, ptr %18, align 8, !tbaa !27
  %20 = sext i32 %19 to i64
  %21 = icmp ult i64 %17, %20
  br i1 %21, label %23, label %22

22:                                               ; preds = %16
  call void @llvm.lifetime.end.p0(i64 8, ptr %9) #16
  br label %39

23:                                               ; preds = %16
  %24 = load ptr, ptr %6, align 8, !tbaa !11
  %25 = load i64, ptr %9, align 8, !tbaa !9
  %26 = getelementptr inbounds nuw float, ptr %24, i64 %25
  %27 = load float, ptr %26, align 4, !tbaa !15
  %28 = load ptr, ptr %7, align 8, !tbaa !11
  %29 = load i64, ptr %9, align 8, !tbaa !9
  %30 = getelementptr inbounds nuw float, ptr %28, i64 %29
  %31 = load float, ptr %30, align 4, !tbaa !15
  %32 = fsub float %27, %31
  %33 = load ptr, ptr %7, align 8, !tbaa !11
  %34 = load i64, ptr %9, align 8, !tbaa !9
  %35 = getelementptr inbounds nuw float, ptr %33, i64 %34
  store float %32, ptr %35, align 4, !tbaa !15
  br label %36

36:                                               ; preds = %23
  %37 = load i64, ptr %9, align 8, !tbaa !9
  %38 = add i64 %37, 1
  store i64 %38, ptr %9, align 8, !tbaa !9
  br label %16, !llvm.loop !34

39:                                               ; preds = %22
  ret void
}