; Function Attrs: mustprogress uwtable
define void @_ZNK5faiss5Index16compute_residualEPKfPfl(ptr noundef nonnull align 8 dereferenceable(36) %0, ptr noundef readonly captures(none) %1, ptr noundef %2, i64 noundef %3) unnamed_addr #3 align 2 {
  %5 = load ptr, ptr %0, align 8, !tbaa !18
  %6 = getelementptr inbounds nuw i8, ptr %5, i64 80
  %7 = load ptr, ptr %6, align 8
  tail call void %7(ptr noundef nonnull align 8 dereferenceable(36) %0, i64 noundef %3, ptr noundef %2)
  %8 = getelementptr inbounds nuw i8, ptr %0, i64 8
  %9 = load i32, ptr %8, align 8, !tbaa !26
  %10 = sext i32 %9 to i64
  %.not = icmp eq i32 %9, 0
  br i1 %.not, label %._crit_edge, label %.lr.ph

._crit_edge:                                      ; preds = %.lr.ph, %4
  ret void

.lr.ph:                                           ; preds = %4, %.lr.ph
  %.010 = phi i64 [ %16, %.lr.ph ], [ 0, %4 ]
  %11 = getelementptr inbounds nuw float, ptr %1, i64 %.010
  %12 = load float, ptr %11, align 4, !tbaa !16
  %13 = getelementptr inbounds nuw float, ptr %2, i64 %.010
  %14 = load float, ptr %13, align 4, !tbaa !16
  %15 = fsub float %12, %14
  store float %15, ptr %13, align 4, !tbaa !16
  %16 = add nuw i64 %.010, 1
  %exitcond.not = icmp eq i64 %16, %10
  br i1 %exitcond.not, label %._crit_edge, label %.lr.ph, !llvm.loop !33
}